
DNSvault:     file format elf64-x86-64


# /lib64/ld-linux-x86-64.so.2.
Disassembly of section .init:

0000000000400560 <_init>:
  400560:	48 83 ec 08          	sub    $0x8,%rsp
  400564:	48 8b 05 8d 1a 20 00 	mov    0x201a8d(%rip),%rax        # 601ff8 <_DYNAMIC+0x1d0>
  40056b:	48 85 c0             	test   %rax,%rax
  40056e:	74 05                	je     400575 <_init+0x15>
  400570:	e8 8b 00 00 00       	callq  400600 <__gmon_start__@plt>
  400575:	48 83 c4 08          	add    $0x8,%rsp
  400579:	c3                   	retq   


# Function calls
Disassembly of section .plt:

0000000000400580 <putchar@plt-0x10>:
  400580:	ff 35 82 1a 20 00    	pushq  0x201a82(%rip)        # 602008 <_GLOBAL_OFFSET_TABLE_+0x8>
  400586:	ff 25 84 1a 20 00    	jmpq   *0x201a84(%rip)        # 602010 <_GLOBAL_OFFSET_TABLE_+0x10>
  40058c:	0f 1f 40 00          	nopl   0x0(%rax)

0000000000400590 <putchar@plt>:
  400590:	ff 25 82 1a 20 00    	jmpq   *0x201a82(%rip)        # 602018 <_GLOBAL_OFFSET_TABLE_+0x18>
  400596:	68 00 00 00 00       	pushq  $0x0
  40059b:	e9 e0 ff ff ff       	jmpq   400580 <_init+0x20>

00000000004005a0 <puts@plt>:
  4005a0:	ff 25 7a 1a 20 00    	jmpq   *0x201a7a(%rip)        # 602020 <_GLOBAL_OFFSET_TABLE_+0x20>
  4005a6:	68 01 00 00 00       	pushq  $0x1
  4005ab:	e9 d0 ff ff ff       	jmpq   400580 <_init+0x20>

00000000004005b0 <__stack_chk_fail@plt>:
  4005b0:	ff 25 72 1a 20 00    	jmpq   *0x201a72(%rip)        # 602028 <_GLOBAL_OFFSET_TABLE_+0x28>
  4005b6:	68 02 00 00 00       	pushq  $0x2
  4005bb:	e9 c0 ff ff ff       	jmpq   400580 <_init+0x20>

00000000004005c0 <printf@plt>:
  4005c0:	ff 25 6a 1a 20 00    	jmpq   *0x201a6a(%rip)        # 602030 <_GLOBAL_OFFSET_TABLE_+0x30>
  4005c6:	68 03 00 00 00       	pushq  $0x3
  4005cb:	e9 b0 ff ff ff       	jmpq   400580 <_init+0x20>

00000000004005d0 <__libc_start_main@plt>:
  4005d0:	ff 25 62 1a 20 00    	jmpq   *0x201a62(%rip)        # 602038 <_GLOBAL_OFFSET_TABLE_+0x38>
  4005d6:	68 04 00 00 00       	pushq  $0x4
  4005db:	e9 a0 ff ff ff       	jmpq   400580 <_init+0x20>

00000000004005e0 <memcmp@plt>:
  4005e0:	ff 25 5a 1a 20 00    	jmpq   *0x201a5a(%rip)        # 602040 <_GLOBAL_OFFSET_TABLE_+0x40>
  4005e6:	68 05 00 00 00       	pushq  $0x5
  4005eb:	e9 90 ff ff ff       	jmpq   400580 <_init+0x20>

00000000004005f0 <fgets@plt>:
  4005f0:	ff 25 52 1a 20 00    	jmpq   *0x201a52(%rip)        # 602048 <_GLOBAL_OFFSET_TABLE_+0x48>
  4005f6:	68 06 00 00 00       	pushq  $0x6
  4005fb:	e9 80 ff ff ff       	jmpq   400580 <_init+0x20>

0000000000400600 <__gmon_start__@plt>:
  400600:	ff 25 4a 1a 20 00    	jmpq   *0x201a4a(%rip)        # 602050 <_GLOBAL_OFFSET_TABLE_+0x50>
  400606:	68 07 00 00 00       	pushq  $0x7
  40060b:	e9 70 ff ff ff       	jmpq   400580 <_init+0x20>

Disassembly of section .text:


# Entry point is here

0000000000400610 <_start>:
  400610:	31 ed                	xor    %ebp,%ebp
  400612:	49 89 d1             	mov    %rdx,%r9
  400615:	5e                   	pop    %rsi
  400616:	48 89 e2             	mov    %rsp,%rdx
  400619:	48 83 e4 f0          	and    $0xfffffffffffffff0,%rsp
  40061d:	50                   	push   %rax
  40061e:	54                   	push   %rsp
  40061f:	49 c7 c0 20 0a 40 00 	mov    $0x400a20,%r8
  400626:	48 c7 c1 b0 09 40 00 	mov    $0x4009b0,%rcx                   # init array

  40062d:	48 c7 c7 fd 06 40 00 	mov    $0x4006fd,%rdi
  400634:	e8 97 ff ff ff       	callq  4005d0 <__libc_start_main@plt>
  400639:	f4                   	hlt    
  40063a:	66 0f 1f 44 00 00    	nopw   0x0(%rax,%rax,1)

0000000000400640 <deregister_tm_clones>:
  400640:	b8 6f 20 60 00       	mov    $0x60206f,%eax
  400645:	55                   	push   %rbp
  400646:	48 2d 68 20 60 00    	sub    $0x602068,%rax
  40064c:	48 83 f8 0e          	cmp    $0xe,%rax
  400650:	48 89 e5             	mov    %rsp,%rbp
  400653:	77 02                	ja     400657 <deregister_tm_clones+0x17>
  400655:	5d                   	pop    %rbp
  400656:	c3                   	retq   
  400657:	b8 00 00 00 00       	mov    $0x0,%eax
  40065c:	48 85 c0             	test   %rax,%rax
  40065f:	74 f4                	je     400655 <deregister_tm_clones+0x15>
  400661:	5d                   	pop    %rbp
  400662:	bf 68 20 60 00       	mov    $0x602068,%edi
  400667:	ff e0                	jmpq   *%rax
  400669:	0f 1f 80 00 00 00 00 	nopl   0x0(%rax)

0000000000400670 <register_tm_clones>:
  400670:	b8 68 20 60 00       	mov    $0x602068,%eax
  400675:	55                   	push   %rbp
  400676:	48 2d 68 20 60 00    	sub    $0x602068,%rax
  40067c:	48 c1 f8 03          	sar    $0x3,%rax
  400680:	48 89 e5             	mov    %rsp,%rbp
  400683:	48 89 c2             	mov    %rax,%rdx
  400686:	48 c1 ea 3f          	shr    $0x3f,%rdx
  40068a:	48 01 d0             	add    %rdx,%rax
  40068d:	48 d1 f8             	sar    %rax
  400690:	75 02                	jne    400694 <register_tm_clones+0x24>
  400692:	5d                   	pop    %rbp
  400693:	c3                   	retq   
  400694:	ba 00 00 00 00       	mov    $0x0,%edx
  400699:	48 85 d2             	test   %rdx,%rdx
  40069c:	74 f4                	je     400692 <register_tm_clones+0x22>
  40069e:	5d                   	pop    %rbp
  40069f:	48 89 c6             	mov    %rax,%rsi
  4006a2:	bf 68 20 60 00       	mov    $0x602068,%edi
  4006a7:	ff e2                	jmpq   *%rdx
  4006a9:	0f 1f 80 00 00 00 00 	nopl   0x0(%rax)

00000000004006b0 <__do_global_dtors_aux>:
  4006b0:	80 3d b9 19 20 00 00 	cmpb   $0x0,0x2019b9(%rip)        # 602070 <completed.6973>
  4006b7:	75 11                	jne    4006ca <__do_global_dtors_aux+0x1a>
  4006b9:	55                   	push   %rbp
  4006ba:	48 89 e5             	mov    %rsp,%rbp
  4006bd:	e8 7e ff ff ff       	callq  400640 <deregister_tm_clones>
  4006c2:	5d                   	pop    %rbp
  4006c3:	c6 05 a6 19 20 00 01 	movb   $0x1,0x2019a6(%rip)        # 602070 <completed.6973>
  4006ca:	f3 c3                	repz retq 
  4006cc:	0f 1f 40 00          	nopl   0x0(%rax)

00000000004006d0 <frame_dummy>:
  4006d0:	48 83 3d 48 17 20 00 	cmpq   $0x0,0x201748(%rip)        # 601e20 <__JCR_END__>
  4006d7:	00 
  4006d8:	74 1e                	je     4006f8 <frame_dummy+0x28>
  4006da:	b8 00 00 00 00       	mov    $0x0,%eax
  4006df:	48 85 c0             	test   %rax,%rax
  4006e2:	74 14                	je     4006f8 <frame_dummy+0x28>
  4006e4:	55                   	push   %rbp
  4006e5:	bf 20 1e 60 00       	mov    $0x601e20,%edi
  4006ea:	48 89 e5             	mov    %rsp,%rbp
  4006ed:	ff d0                	callq  *%rax
  4006ef:	5d                   	pop    %rbp
  4006f0:	e9 7b ff ff ff       	jmpq   400670 <register_tm_clones>
  4006f5:	0f 1f 00             	nopl   (%rax)
  4006f8:	e9 73 ff ff ff       	jmpq   400670 <register_tm_clones>




"""
int main()
"""

"""
Assembly is simpler than C. In GAS assembly, instructions are suffixed with the letters "b", "s", "w", "l", "q" or "t" to determine what size operand is being manipulated.

* b = byte (8 bit)
* s = short (16 bit integer) or single (32-bit floating point)
* w = word (16 bit)
* l = long (32 bit integer or 64-bit floating point)
* q = quad (64 bit)
* t = ten bytes (80-bit floating point)
"""

00000000004006fd <main>:
  4006fd:	55                   	push   %rbp             # save calling function's stack frame (rbp)
  4006fe:	48 89 e5             	mov    %rsp,%rbp        # make new stack frame on top of caller's stack frame 
  400701:	53                   	push   %rbx             
  400702:	48 81 ec b8 00 00 00 	sub    $0xb8,%rsp
  400709:	64 48 8b 04 25 28 00 	mov    %fs:0x28,%rax
  400710:	00 00 
  400712:	48 89 45 e8          	mov    %rax,-0x18(%rbp) 
  400716:	31 c0                	xor    %eax,%eax          # clear eax register

# Suspicion that the password compare is being done here

  400718:	c6 85 50 ff ff ff 11 	movb   $0x11,-0xb0(%rbp)        176
  40071f:	c6 85 51 ff ff ff 36 	movb   $0x36,-0xaf(%rbp)    6   175
  400726:	c6 85 52 ff ff ff 37 	movb   $0x37,-0xae(%rbp)    7   174
  40072d:	c6 85 53 ff ff ff 3a 	movb   $0x3a,-0xad(%rbp)    :   173
  400734:	c6 85 54 ff ff ff 2c 	movb   $0x2c,-0xac(%rbp)    , 
  40073b:	c6 85 55 ff ff ff 27 	movb   $0x27,-0xab(%rbp)    '
  400742:	c6 85 56 ff ff ff 36 	movb   $0x36,-0xaa(%rbp)    6   170
  400749:	c6 85 57 ff ff ff 62 	movb   $0x62,-0xa9(%rbp)    b   169
  400750:	c6 85 58 ff ff ff 36 	movb   $0x36,-0xa8(%rbp)    6   168
  400757:	c6 85 59 ff ff ff 2a 	movb   $0x2a,-0xa7(%rbp)    *   167
  40075e:	c6 85 5a ff ff ff 27 	movb   $0x27,-0xa6(%rbp)    '
  400765:	c6 85 5b ff ff ff 62 	movb   $0x62,-0xa5(%rbp)    b
  40076c:	c6 85 5c ff ff ff 12 	movb   $0x12,-0xa4(%rbp)    
  400773:	c6 85 5d ff ff ff 2e 	movb   $0x2e,-0xa3(%rbp)    .
  40077a:	c6 85 5e ff ff ff 23 	movb   $0x23,-0xa2(%rbp)    #
  400781:	c6 85 5f ff ff ff 2c 	movb   $0x2c,-0xa1(%rbp)    ,
  400788:	c6 85 60 ff ff ff 27 	movb   $0x27,-0xa0(%rbp)    '   160
  40078f:	c6 85 61 ff ff ff 36 	movb   $0x36,-0x9f(%rbp)    6   159
  400796:	c6 85 62 ff ff ff 63 	movb   $0x63,-0x9e(%rbp)    c   158
  40079d:	c6 85 63 ff ff ff 00 	movb   $0x0,-0x9d(%rbp)         157
  4007a4:	c6 85 70 ff ff ff 0a 	movb   $0xa,-0x90(%rbp)         144
  4007ab:	c6 85 71 ff ff ff 11 	movb   $0x11,-0x8f(%rbp)        143
  4007b2:	c6 85 72 ff ff ff 06 	movb   $0x6,-0x8e(%rbp)
  4007b9:	c6 85 73 ff ff ff 58 	movb   $0x58,-0x8d(%rbp)    X
  4007c0:	c6 85 74 ff ff ff 2b 	movb   $0x2b,-0x8c(%rbp)    +
  4007c7:	c6 85 75 ff ff ff 23 	movb   $0x23,-0x8b(%rbp)    #
  4007ce:	c6 85 76 ff ff ff 32 	movb   $0x32,-0x8a(%rbp)    2
  4007d5:	c6 85 77 ff ff ff 00 	movb   $0x0,-0x89(%rbp)
  4007dc:	c6 85 78 ff ff ff 1d 	movb   $0x1d,-0x88(%rbp)
  4007e3:	c6 85 79 ff ff ff 1b 	movb   $0x1b,-0x87(%rbp)
  4007ea:	c6 85 7a ff ff ff 45 	movb   $0x45,-0x86(%rbp)    E
  4007f1:	c6 85 7b ff ff ff 59 	movb   $0x59,-0x85(%rbp)    Y
  4007f8:	c6 85 7c ff ff ff 3f 	movb   $0x3f,-0x84(%rbp)    ?
  4007ff:	c6 85 7d ff ff ff 19 	movb   $0x19,-0x83(%rbp)
  400806:	c6 85 7e ff ff ff 13 	movb   $0x13,-0x82(%rbp)
  40080d:	c6 85 7f ff ff ff 4e 	movb   $0x4e,-0x81(%rbp)    N
  400814:	c6 45 80 27          	movb   $0x27,-0x80(%rbp)    '
  400818:	c6 45 81 32          	movb   $0x32,-0x7f(%rbp)    2
  40081c:	c6 45 82 67          	movb   $0x67,-0x7e(%rbp)    g 
  400820:	c6 45 83 00          	movb   $0x0,-0x7d(%rbp)         125    # something is incrementing up to here
  400824:	bf 38 0a 40 00       	mov    $0x400a38,%edi
  400829:	e8 72 fd ff ff       	callq  4005a0 <puts@plt>        # bunch of puts calling
  40082e:	bf 80 0a 40 00       	mov    $0x400a80,%edi
  400833:	e8 68 fd ff ff       	callq  4005a0 <puts@plt>
  400838:	bf c8 0a 40 00       	mov    $0x400ac8,%edi
  40083d:	e8 5e fd ff ff       	callq  4005a0 <puts@plt>
  400842:	bf 10 0b 40 00       	mov    $0x400b10,%edi
  400847:	e8 54 fd ff ff       	callq  4005a0 <puts@plt>
  40084c:	bf 58 0b 40 00       	mov    $0x400b58,%edi
  400851:	e8 4a fd ff ff       	callq  4005a0 <puts@plt>
  400856:	bf a0 0b 40 00       	mov    $0x400ba0,%edi
  40085b:	e8 40 fd ff ff       	callq  4005a0 <puts@plt>
  400860:	bf e8 0b 40 00       	mov    $0x400be8,%edi
  400865:	e8 36 fd ff ff       	callq  4005a0 <puts@plt>
  40086a:	bf 19 0c 40 00       	mov    $0x400c19,%edi
  40086f:	e8 2c fd ff ff       	callq  4005a0 <puts@plt>
  400874:	bf 0a 00 00 00       	mov    $0xa,%edi
  400879:	e8 12 fd ff ff       	callq  400590 <putchar@plt>
  40087e:	bf 2e 0c 40 00       	mov    $0x400c2e,%edi
  400883:	b8 00 00 00 00       	mov    $0x0,%eax
  400888:	e8 33 fd ff ff       	callq  4005c0 <printf@plt>
  40088d:	48 8b 15 d4 17 20 00 	mov    0x2017d4(%rip),%rdx        # 602068 <__TMC_END__>
  400894:	48 8d 45 90          	lea    -0x70(%rbp),%rax           
  400898:	be 14 00 00 00       	mov    $0x14,%esi
  40089d:	48 89 c7             	mov    %rax,%rdi                  
  4008a0:	e8 4b fd ff ff       	callq  4005f0 <fgets@plt>         # request input from stdin
  4008a5:	c7 85 4c ff ff ff 00 	movl   $0x0,-0xb4(%rbp)           
  4008ac:	00 00 00 
  4008af:	eb 50                	jmp    400901 <main+0x204>        # jumping to a compare...
  4008b1:	8b 85 4c ff ff ff    	mov    -0xb4(%rbp),%eax           # jump if less than equal 
  4008b7:	48 98                	cltq                              # convert long to quad
  4008b9:	0f b6 44 05 90       	movzbl -0x70(%rbp,%rax,1),%eax    # sign extends and copies to double word dest
  4008be:	83 f0 42             	xor    $0x42,%eax                 # value 35 here in eax??
  4008c1:	89 c2                	mov    %eax,%edx                  # copy 35 to edx
  4008c3:	8b 85 4c ff ff ff    	mov    -0xb4(%rbp),%eax           # back to 0
  4008c9:	48 98                	cltq   
  4008cb:	88 54 05 b0          	mov    %dl,-0x50(%rbp,%rax,1)     # dl is 35, 
  4008cf:	8b 85 4c ff ff ff    	mov    -0xb4(%rbp),%eax
  4008d5:	48 98                	cltq   
  4008d7:	0f b6 54 05 90       	movzbl -0x70(%rbp,%rax,1),%edx
  4008dc:	8b 85 4c ff ff ff    	mov    -0xb4(%rbp),%eax
  4008e2:	48 98                	cltq   
  4008e4:	0f b6 84 05 70 ff ff 	movzbl -0x90(%rbp,%rax,1),%eax
  4008eb:	ff 
  4008ec:	31 c2                	xor    %eax,%edx
  4008ee:	8b 85 4c ff ff ff    	mov    -0xb4(%rbp),%eax
  4008f4:	48 98                	cltq                              # convert long to quad (8 bytes)
  4008f6:	88 54 05 d0          	mov    %dl,-0x30(%rbp,%rax,1)
  4008fa:	83 85 4c ff ff ff 01 	addl   $0x1,-0xb4(%rbp)
  400901:	83 bd 4c ff ff ff 13 	cmpl   $0x13,-0xb4(%rbp)
  400908:	7e a7                	jle    4008b1 <main+0x1b4>        # jump back for more string stuff.  Seems like for loop
  40090a:	c6 45 c3 00          	movb   $0x0,-0x3d(%rbp)
  40090e:	48 8d 8d 50 ff ff ff 	lea    -0xb0(%rbp),%rcx
  400915:	48 8d 45 b0          	lea    -0x50(%rbp),%rax
  400919:	ba 14 00 00 00       	mov    $0x14,%edx
  40091e:	48 89 ce             	mov    %rcx,%rsi
  400921:	48 89 c7             	mov    %rax,%rdi                  

  # after entering password.  Call compare.  If zflag not equal to 0, jump to printing the incorrect password message

  400924:	e8 b7 fc ff ff       	callq  4005e0 <memcmp@plt>        # Call compare
  400929:	85 c0                	test   %eax,%eax                  # test sets 0 flag if result of bitwise AND is 0
  40092b:	75 4f                	jne    40097c <main+0x27f>        

  # Begin display of flag:

  40092d:	bf 4b 0c 40 00       	mov    $0x400c4b,%edi
  400932:	e8 69 fc ff ff       	callq  4005a0 <puts@plt>
  400937:	bf 58 0c 40 00       	mov    $0x400c58,%edi
  40093c:	e8 5f fc ff ff       	callq  4005a0 <puts@plt>
  400941:	bf 88 0c 40 00       	mov    $0x400c88,%edi
  400946:	e8 55 fc ff ff       	callq  4005a0 <puts@plt>
  40094b:	bf 58 0c 40 00       	mov    $0x400c58,%edi
  400950:	e8 4b fc ff ff       	callq  4005a0 <puts@plt>
  400955:	48 8d 45 d0          	lea    -0x30(%rbp),%rax               # load effective address
  400959:	48 89 c6             	mov    %rax,%rsi
  40095c:	bf b1 0c 40 00       	mov    $0x400cb1,%edi                 # Calls the please enter your password address
  400961:	b8 00 00 00 00       	mov    $0x0,%eax
  400966:	e8 55 fc ff ff       	callq  4005c0 <printf@plt>            # Prints the flag
  40096b:	bf 58 0c 40 00       	mov    $0x400c58,%edi                 # Prints the entry +------+
  400970:	e8 2b fc ff ff       	callq  4005a0 <puts@plt>
  400975:	b8 00 00 00 00       	mov    $0x0,%eax
  40097a:	eb 0f                	jmp    40098b <main+0x28e>
  40097c:	bf ca 0c 40 00       	mov    $0x400cca,%edi                 # jump to here from not equal compare
  400981:	e8 1a fc ff ff       	callq  4005a0 <puts@plt>              # print incorrect password 
  400986:	b8 01 00 00 00       	mov    $0x1,%eax
  40098b:	48 8b 5d e8          	mov    -0x18(%rbp),%rbx
  40098f:	64 48 33 1c 25 28 00 	xor    %fs:0x28,%rbx
  400996:	00 00 
  400998:	74 05                	je     40099f <main+0x2a2>
  40099a:	e8 11 fc ff ff       	callq  4005b0 <__stack_chk_fail@plt>   # stack overflow detected
  40099f:	48 81 c4 b8 00 00 00 	add    $0xb8,%rsp
  4009a6:	5b                   	pop    %rbx
  4009a7:	5d                   	pop    %rbp
  4009a8:	c3                   	retq   
  4009a9:	0f 1f 80 00 00 00 00 	nopl   0x0(%rax)

00000000004009b0 <__libc_csu_init>:
  4009b0:	41 57                	push   %r15
  4009b2:	41 89 ff             	mov    %edi,%r15d
  4009b5:	41 56                	push   %r14
  4009b7:	49 89 f6             	mov    %rsi,%r14
  4009ba:	41 55                	push   %r13
  4009bc:	49 89 d5             	mov    %rdx,%r13
  4009bf:	41 54                	push   %r12
  4009c1:	4c 8d 25 48 14 20 00 	lea    0x201448(%rip),%r12        # 601e10 <__frame_dummy_init_array_entry>
  4009c8:	55                   	push   %rbp
  4009c9:	48 8d 2d 48 14 20 00 	lea    0x201448(%rip),%rbp        # 601e18 <__init_array_end>
  4009d0:	53                   	push   %rbx
  4009d1:	4c 29 e5             	sub    %r12,%rbp
  4009d4:	31 db                	xor    %ebx,%ebx
  4009d6:	48 c1 fd 03          	sar    $0x3,%rbp
  4009da:	48 83 ec 08          	sub    $0x8,%rsp
  4009de:	e8 7d fb ff ff       	callq  400560 <_init>
  4009e3:	48 85 ed             	test   %rbp,%rbp
  4009e6:	74 1e                	je     400a06 <__libc_csu_init+0x56>
  4009e8:	0f 1f 84 00 00 00 00 	nopl   0x0(%rax,%rax,1)
  4009ef:	00 
  4009f0:	4c 89 ea             	mov    %r13,%rdx
  4009f3:	4c 89 f6             	mov    %r14,%rsi
  4009f6:	44 89 ff             	mov    %r15d,%edi
  4009f9:	41 ff 14 dc          	callq  *(%r12,%rbx,8)
  4009fd:	48 83 c3 01          	add    $0x1,%rbx
  400a01:	48 39 eb             	cmp    %rbp,%rbx
  400a04:	75 ea                	jne    4009f0 <__libc_csu_init+0x40>
  400a06:	48 83 c4 08          	add    $0x8,%rsp
  400a0a:	5b                   	pop    %rbx
  400a0b:	5d                   	pop    %rbp
  400a0c:	41 5c                	pop    %r12
  400a0e:	41 5d                	pop    %r13
  400a10:	41 5e                	pop    %r14
  400a12:	41 5f                	pop    %r15
  400a14:	c3                   	retq   
  400a15:	66 66 2e 0f 1f 84 00 	data32 nopw %cs:0x0(%rax,%rax,1)   #nopw = do nothing noop
  400a1c:	00 00 00 00 

0000000000400a20 <__libc_csu_fini>:
  400a20:	f3 c3                	repz retq 

Disassembly of section .fini:

0000000000400a24 <_fini>:
  400a24:	48 83 ec 08          	sub    $0x8,%rsp
  400a28:	48 83 c4 08          	add    $0x8,%rsp
  400a2c:	c3                   	retq   





